ccopy_reg
_reconstructor
p0
(cpyimagesearch.face_recognition.facerecognizer
FaceRecognizerInstance
p1
c__builtin__
tuple
p2
(I01
(lp3
S'tom'
p4
aS'erica'
p5
aS'john_glover'
p6
aS'john_schneider'
p7
aS'michael'
p8
aS'kristin'
p9
aS'allison'
p10
aS'annette'
p11
atp12
tp13
Rp14
.